target datalayout = "e-m:e-p270:32:32-p271:32:32-p272:64:64-i64:64-i128:128-f80:128-n8:16:32:64-S128"
target triple = "x86_64-pc-linux-gnu"

%struct.quic_rstream_st = type { %struct.sframe_list_st, ptr, ptr, %struct.uint_range_st, %struct.ring_buf }
%struct.sframe_list_st = type { ptr, ptr, i32, i64, i64, i32, i32 }
%struct.uint_range_st = type { i64, i64 }
%struct.ring_buf = type { ptr, i64, i64, i64 }

@.str = private unnamed_addr constant [35 x i8] c"../openssl/ssl/quic/quic_rstream.c\00", align 1
@__func__.ossl_quic_rstream_queue_data = private unnamed_addr constant [29 x i8] c"ossl_quic_rstream_queue_data\00", align 1

; Function Attrs: nounwind uwtable
define i32 @ossl_quic_rstream_queue_data(ptr noundef %0, ptr noundef %1, i64 noundef %2, ptr noundef %3, i64 noundef %4, i32 noundef %5) #0 {
  %7 = alloca i32, align 4
  %8 = alloca ptr, align 8
  %9 = alloca ptr, align 8
  %10 = alloca i64, align 8
  %11 = alloca ptr, align 8
  %12 = alloca i64, align 8
  %13 = alloca i32, align 4
  %14 = alloca %struct.uint_range_st, align 8
  %15 = alloca i32, align 4
  store ptr %0, ptr %8, align 8, !tbaa !12
  store ptr %1, ptr %9, align 8, !tbaa !32
  store i64 %2, ptr %10, align 8, !tbaa !10
  store ptr %3, ptr %11, align 8, !tbaa !29
  store i64 %4, ptr %12, align 8, !tbaa !10
  store i32 %5, ptr %13, align 4, !tbaa !28
  call void @llvm.lifetime.start.p0(i64 16, ptr %14) #8
  %16 = load ptr, ptr %11, align 8, !tbaa !29
  %17 = icmp eq ptr %16, null
  br i1 %17, label %18, label %21

18:                                               ; preds = %6
  %19 = load i64, ptr %12, align 8, !tbaa !10
  %20 = icmp ne i64 %19, 0
  br i1 %20, label %27, label %21

21:                                               ; preds = %18, %6
  %22 = load i64, ptr %12, align 8, !tbaa !10
  %23 = icmp eq i64 %22, 0
  br i1 %23, label %24, label %28

24:                                               ; preds = %21
  %25 = load i32, ptr %13, align 4, !tbaa !28
  %26 = icmp eq i32 %25, 0
  br i1 %26, label %27, label %28

27:                                               ; preds = %24, %18
  call void @ERR_new()
  call void @ERR_set_debug(ptr noundef @.str, i32 noundef 66, ptr noundef @__func__.ossl_quic_rstream_queue_data)
  call void (i32, i32, ptr, ...) @ERR_set_error(i32 noundef 20, i32 noundef 786691, ptr noundef null)
  store i32 0, ptr %7, align 4
  store i32 1, ptr %15, align 4
  br label %41

28:                                               ; preds = %24, %21
  %29 = load i64, ptr %10, align 8, !tbaa !10
  %30 = getelementptr inbounds nuw %struct.uint_range_st, ptr %14, i32 0, i32 0
  store i64 %29, ptr %30, align 8, !tbaa !34
  %31 = load i64, ptr %10, align 8, !tbaa !10
  %32 = load i64, ptr %12, align 8, !tbaa !10
  %33 = add i64 %31, %32
  %34 = getelementptr inbounds nuw %struct.uint_range_st, ptr %14, i32 0, i32 1
  store i64 %33, ptr %34, align 8, !tbaa !35
  %35 = load ptr, ptr %8, align 8, !tbaa !12
  %36 = getelementptr inbounds nuw %struct.quic_rstream_st, ptr %35, i32 0, i32 0
  %37 = load ptr, ptr %9, align 8, !tbaa !32
  %38 = load ptr, ptr %11, align 8, !tbaa !29
  %39 = load i32, ptr %13, align 4, !tbaa !28
  %40 = call i32 @ossl_sframe_list_insert(ptr noundef %36, ptr noundef %14, ptr noundef %37, ptr noundef %38, i32 noundef %39)
  store i32 %40, ptr %7, align 4
  store i32 1, ptr %15, align 4
  br label %41

41:                                               ; preds = %28, %27
  call void @llvm.lifetime.end.p0(i64 16, ptr %14) #8
  %42 = load i32, ptr %7, align 4
  ret i32 %42
}