; Function Attrs: nounwind uwtable
define i32 @ossl_quic_rstream_queue_data(ptr noundef %0, ptr noundef %1, i64 noundef %2, ptr noundef %3, i64 noundef %4, i32 noundef %5) local_unnamed_addr #0 {
  %7 = alloca %struct.uint_range_st, align 8
  call void @llvm.lifetime.start.p0(i64 16, ptr nonnull %7) #10
  %8 = icmp eq ptr %3, null
  %9 = icmp ne i64 %4, 0
  %or.cond = and i1 %8, %9
  br i1 %or.cond, label %13, label %10

10:                                               ; preds = %6
  %11 = icmp eq i64 %4, 0
  %12 = icmp eq i32 %5, 0
  %or.cond3 = and i1 %11, %12
  br i1 %or.cond3, label %13, label %14

13:                                               ; preds = %10, %6
  tail call void @ERR_new() #10
  tail call void @ERR_set_debug(ptr noundef nonnull @.str, i32 noundef 66, ptr noundef nonnull @__func__.ossl_quic_rstream_queue_data) #10
  tail call void (i32, i32, ptr, ...) @ERR_set_error(i32 noundef 20, i32 noundef 786691, ptr noundef null) #10
  br label %18

14:                                               ; preds = %10
  store i64 %2, ptr %7, align 8, !tbaa !22
  %15 = add i64 %4, %2
  %16 = getelementptr inbounds nuw i8, ptr %7, i64 8
  store i64 %15, ptr %16, align 8, !tbaa !23
  %17 = call i32 @ossl_sframe_list_insert(ptr noundef %0, ptr noundef nonnull %7, ptr noundef %1, ptr noundef %3, i32 noundef %5) #10
  br label %18

18:                                               ; preds = %14, %13
  %.0 = phi i32 [ 0, %13 ], [ %17, %14 ]
  call void @llvm.lifetime.end.p0(i64 16, ptr nonnull %7) #10
  ret i32 %.0
}